target datalayout = "e-m:e-p270:32:32-p271:32:32-p272:64:64-i64:64-i128:128-f80:128-n8:16:32:64-S128"
target triple = "x86_64-pc-linux-gnu"

%struct.hwloc_topology = type { i32, i32, i32, ptr, ptr, i64, [20 x i32], [20 x i32], i64, i64, i32, ptr, i64, ptr, i64, [6 x %struct.hwloc_special_level_s], ptr, ptr, %struct.hwloc_binding_hooks, %struct.hwloc_topology_support, %struct.hwloc_infos_s, ptr, ptr, i32, ptr, ptr, i32, i32, ptr, i32, i32, ptr, i32, i32, i32, [5 x float], i32, ptr, ptr, i32, i32, ptr, i32, %struct.hwloc_numanode_attr_s, i32, i32, ptr, i64, i32, ptr, ptr, ptr }
%struct.hwloc_special_level_s = type { i32, ptr, ptr, ptr }
%struct.hwloc_binding_hooks = type { ptr, ptr, ptr, ptr, ptr, ptr, ptr, ptr, ptr, ptr, ptr, ptr, ptr, ptr, ptr, ptr, ptr, ptr, ptr, ptr, ptr, ptr, ptr, ptr }
%struct.hwloc_topology_support = type { ptr, ptr, ptr, ptr }
%struct.hwloc_infos_s = type { ptr, i32, i32 }
%struct.hwloc_numanode_attr_s = type { i64, i32, ptr }
%struct.hwloc_internal_memattr_s = type { ptr, i64, i32, i32, ptr }

; Function Attrs: nounwind uwtable
define i32 @hwloc_memattr_get_flags(ptr noundef %0, i32 noundef %1, ptr noundef %2) #0 {
  %4 = alloca i32, align 4
  %5 = alloca ptr, align 8
  %6 = alloca i32, align 4
  %7 = alloca ptr, align 8
  store ptr %0, ptr %5, align 8, !tbaa !3
  store i32 %1, ptr %6, align 4, !tbaa !45
  store ptr %2, ptr %7, align 8, !tbaa !73
  %8 = load i32, ptr %6, align 4, !tbaa !45
  %9 = load ptr, ptr %5, align 8, !tbaa !3
  %10 = getelementptr inbounds nuw %struct.hwloc_topology, ptr %9, i32 0, i32 27
  %11 = load i32, ptr %10, align 4, !tbaa !8
  %12 = icmp uge i32 %8, %11
  br i1 %12, label %13, label %15

13:                                               ; preds = %3
  %14 = call ptr @__errno_location() #16
  store i32 22, ptr %14, align 4, !tbaa !45
  store i32 -1, ptr %4, align 4
  br label %25

15:                                               ; preds = %3
  %16 = load ptr, ptr %5, align 8, !tbaa !3
  %17 = getelementptr inbounds nuw %struct.hwloc_topology, ptr %16, i32 0, i32 28
  %18 = load ptr, ptr %17, align 8, !tbaa !33
  %19 = load i32, ptr %6, align 4, !tbaa !45
  %20 = zext i32 %19 to i64
  %21 = getelementptr inbounds nuw %struct.hwloc_internal_memattr_s, ptr %18, i64 %20
  %22 = getelementptr inbounds nuw %struct.hwloc_internal_memattr_s, ptr %21, i32 0, i32 1
  %23 = load i64, ptr %22, align 8, !tbaa !41
  %24 = load ptr, ptr %7, align 8, !tbaa !73
  store i64 %23, ptr %24, align 8, !tbaa !37
  store i32 0, ptr %4, align 4
  br label %25

25:                                               ; preds = %15, %13
  %26 = load i32, ptr %4, align 4
  ret i32 %26
}