; Function Attrs: mustprogress nofree nosync nounwind willreturn memory(readwrite, inaccessiblemem: none) uwtable
define range(i32 -1, 1) i32 @hwloc_memattr_get_flags(ptr noundef readonly captures(none) %0, i32 noundef %1, ptr noundef writeonly captures(none) %2) local_unnamed_addr #11 {
  %4 = getelementptr inbounds nuw i8, ptr %0, i64 748
  %5 = load i32, ptr %4, align 4, !tbaa !3
  %.not = icmp ult i32 %1, %5
  br i1 %.not, label %8, label %6

6:                                                ; preds = %3
  %7 = tail call ptr @__errno_location() #31
  store i32 22, ptr %7, align 4, !tbaa !60
  br label %14

8:                                                ; preds = %3
  %9 = getelementptr inbounds nuw i8, ptr %0, i64 752
  %10 = load ptr, ptr %9, align 8, !tbaa !31
  %11 = zext i32 %1 to i64
  %12 = getelementptr inbounds nuw %struct.hwloc_internal_memattr_s, ptr %10, i64 %11, i32 1
  %13 = load i64, ptr %12, align 8, !tbaa !36
  store i64 %13, ptr %2, align 8, !tbaa !63
  br label %14

14:                                               ; preds = %8, %6
  %.0 = phi i32 [ -1, %6 ], [ 0, %8 ]
  ret i32 %.0
}